target datalayout = "e-m:e-p270:32:32-p271:32:32-p272:64:64-i64:64-i128:128-f80:128-n8:16:32:64-S128"
target triple = "x86_64-pc-linux-gnu"

%"class.cv::MatOp" = type { ptr }
%"class.cv::MatOp_AddEx" = type { %"class.cv::MatOp" }
%"class.cv::MatExpr" = type { ptr, i32, %"class.cv::Mat", %"class.cv::Mat", %"class.cv::Mat", double, double, %"class.cv::Scalar_" }
%"class.cv::Mat" = type { i32, i32, i32, i32, ptr, ptr, ptr, ptr, ptr, ptr, %"struct.cv::MatSize", %"struct.cv::MatStep" }
%"struct.cv::MatSize" = type { ptr }
%"struct.cv::MatStep" = type { ptr, [2 x i64] }
%"class.cv::Scalar_" = type { %"class.cv::Vec" }
%"class.cv::Vec" = type { %"class.cv::Matx" }
%"class.cv::Matx" = type { [4 x double] }
%"class.cv::utils::trace::details::Region" = type <{ ptr, i32, [4 x i8] }>

@_ZN2cvL13g_MatOp_AddExE = internal global %"class.cv::MatOp_AddEx" zeroinitializer, align 8

; Function Attrs: mustprogress nounwind uwtable
define linkonce_odr hidden void @_ZN2cv4MatxIdLi4ELi1EEC2Ev(ptr noundef nonnull align 8 dereferenceable(32) %0) unnamed_addr #4 comdat align 2 {
  %2 = alloca ptr, align 8
  %3 = alloca i32, align 4
  store ptr %0, ptr %2, align 8
  %4 = load ptr, ptr %2, align 8
  store i32 0, ptr %3, align 4
  br label %5

5:                                                ; preds = %13, %1
  %6 = load i32, ptr %3, align 4
  %7 = icmp slt i32 %6, 4
  br i1 %7, label %8, label %16

8:                                                ; preds = %5
  %9 = getelementptr inbounds %"class.cv::Matx", ptr %4, i32 0, i32 0
  %10 = load i32, ptr %3, align 4
  %11 = sext i32 %10 to i64
  %12 = getelementptr inbounds [4 x double], ptr %9, i64 0, i64 %11
  store double 0.000000e+00, ptr %12, align 8
  br label %13

13:                                               ; preds = %8
  %14 = load i32, ptr %3, align 4
  %15 = add nsw i32 %14, 1
  store i32 %15, ptr %3, align 4
  br label %5, !llvm.loop !7

16:                                               ; preds = %5
  ret void
}

; Function Attrs: mustprogress uwtable
define linkonce_odr hidden void @_ZN2cv3VecIdLi4EEC2Ev(ptr noundef nonnull align 8 dereferenceable(32) %0) unnamed_addr #6 comdat align 2 {
  %2 = alloca ptr, align 8
  store ptr %0, ptr %2, align 8
  %3 = load ptr, ptr %2, align 8
  call void @_ZN2cv4MatxIdLi4ELi1EEC2Ev(ptr noundef nonnull align 8 dereferenceable(32) %3)
  ret void
}

; Function Attrs: mustprogress nounwind uwtable
define internal noundef nonnull align 8 dereferenceable(32) ptr @_ZN2cvmIIdEERNS_7Scalar_IT_EES4_RKS3_(ptr noundef nonnull align 8 dereferenceable(32) %0, ptr noundef nonnull align 8 dereferenceable(32) %1) #4 {
  %3 = alloca ptr, align 8
  %4 = alloca ptr, align 8
  store ptr %0, ptr %3, align 8
  store ptr %1, ptr %4, align 8
  %5 = load ptr, ptr %4, align 8
  %6 = getelementptr inbounds %"class.cv::Matx", ptr %5, i32 0, i32 0
  %7 = getelementptr inbounds [4 x double], ptr %6, i64 0, i64 0
  %8 = load double, ptr %7, align 8
  %9 = load ptr, ptr %3, align 8
  %10 = getelementptr inbounds %"class.cv::Matx", ptr %9, i32 0, i32 0
  %11 = getelementptr inbounds [4 x double], ptr %10, i64 0, i64 0
  %12 = load double, ptr %11, align 8
  %13 = fsub double %12, %8
  store double %13, ptr %11, align 8
  %14 = load ptr, ptr %4, align 8
  %15 = getelementptr inbounds %"class.cv::Matx", ptr %14, i32 0, i32 0
  %16 = getelementptr inbounds [4 x double], ptr %15, i64 0, i64 1
  %17 = load double, ptr %16, align 8
  %18 = load ptr, ptr %3, align 8
  %19 = getelementptr inbounds %"class.cv::Matx", ptr %18, i32 0, i32 0
  %20 = getelementptr inbounds [4 x double], ptr %19, i64 0, i64 1
  %21 = load double, ptr %20, align 8
  %22 = fsub double %21, %17
  store double %22, ptr %20, align 8
  %23 = load ptr, ptr %4, align 8
  %24 = getelementptr inbounds %"class.cv::Matx", ptr %23, i32 0, i32 0
  %25 = getelementptr inbounds [4 x double], ptr %24, i64 0, i64 2
  %26 = load double, ptr %25, align 8
  %27 = load ptr, ptr %3, align 8
  %28 = getelementptr inbounds %"class.cv::Matx", ptr %27, i32 0, i32 0
  %29 = getelementptr inbounds [4 x double], ptr %28, i64 0, i64 2
  %30 = load double, ptr %29, align 8
  %31 = fsub double %30, %26
  store double %31, ptr %29, align 8
  %32 = load ptr, ptr %4, align 8
  %33 = getelementptr inbounds %"class.cv::Matx", ptr %32, i32 0, i32 0
  %34 = getelementptr inbounds [4 x double], ptr %33, i64 0, i64 3
  %35 = load double, ptr %34, align 8
  %36 = load ptr, ptr %3, align 8
  %37 = getelementptr inbounds %"class.cv::Matx", ptr %36, i32 0, i32 0
  %38 = getelementptr inbounds [4 x double], ptr %37, i64 0, i64 3
  %39 = load double, ptr %38, align 8
  %40 = fsub double %39, %35
  store double %40, ptr %38, align 8
  %41 = load ptr, ptr %3, align 8
  ret ptr %41
}

; Function Attrs: mustprogress nounwind uwtable
define linkonce_odr hidden noundef nonnull align 8 dereferenceable(32) ptr @_ZN2cv7Scalar_IdEaSERKS1_(ptr noundef nonnull align 8 dereferenceable(32) %0, ptr noundef nonnull align 8 dereferenceable(32) %1) #4 comdat align 2 {
  %3 = alloca ptr, align 8
  %4 = alloca ptr, align 8
  store ptr %0, ptr %3, align 8
  store ptr %1, ptr %4, align 8
  %5 = load ptr, ptr %3, align 8
  %6 = load ptr, ptr %4, align 8
  %7 = getelementptr inbounds %"class.cv::Matx", ptr %6, i32 0, i32 0
  %8 = getelementptr inbounds [4 x double], ptr %7, i64 0, i64 0
  %9 = load double, ptr %8, align 8
  %10 = getelementptr inbounds %"class.cv::Matx", ptr %5, i32 0, i32 0
  %11 = getelementptr inbounds [4 x double], ptr %10, i64 0, i64 0
  store double %9, ptr %11, align 8
  %12 = load ptr, ptr %4, align 8
  %13 = getelementptr inbounds %"class.cv::Matx", ptr %12, i32 0, i32 0
  %14 = getelementptr inbounds [4 x double], ptr %13, i64 0, i64 1
  %15 = load double, ptr %14, align 8
  %16 = getelementptr inbounds %"class.cv::Matx", ptr %5, i32 0, i32 0
  %17 = getelementptr inbounds [4 x double], ptr %16, i64 0, i64 1
  store double %15, ptr %17, align 8
  %18 = load ptr, ptr %4, align 8
  %19 = getelementptr inbounds %"class.cv::Matx", ptr %18, i32 0, i32 0
  %20 = getelementptr inbounds [4 x double], ptr %19, i64 0, i64 2
  %21 = load double, ptr %20, align 8
  %22 = getelementptr inbounds %"class.cv::Matx", ptr %5, i32 0, i32 0
  %23 = getelementptr inbounds [4 x double], ptr %22, i64 0, i64 2
  store double %21, ptr %23, align 8
  %24 = load ptr, ptr %4, align 8
  %25 = getelementptr inbounds %"class.cv::Matx", ptr %24, i32 0, i32 0
  %26 = getelementptr inbounds [4 x double], ptr %25, i64 0, i64 3
  %27 = load double, ptr %26, align 8
  %28 = getelementptr inbounds %"class.cv::Matx", ptr %5, i32 0, i32 0
  %29 = getelementptr inbounds [4 x double], ptr %28, i64 0, i64 3
  store double %27, ptr %29, align 8
  ret ptr %5
}

; Function Attrs: mustprogress nounwind uwtable
define internal noundef zeroext i1 @_ZN2cvL7isAddExERKNS_7MatExprE(ptr noundef nonnull align 8 dereferenceable(352) %0) #4 {
  %2 = alloca ptr, align 8
  store ptr %0, ptr %2, align 8
  %3 = load ptr, ptr %2, align 8
  %4 = getelementptr inbounds %"class.cv::MatExpr", ptr %3, i32 0, i32 0
  %5 = load ptr, ptr %4, align 8
  %6 = icmp eq ptr %5, @_ZN2cvL13g_MatOp_AddExE
  ret i1 %6
}

; Function Attrs: mustprogress uwtable
define linkonce_odr hidden void @_ZN2cv7Scalar_IdEC2Ev(ptr noundef nonnull align 8 dereferenceable(32) %0) unnamed_addr #6 comdat align 2 {
  %2 = alloca ptr, align 8
  store ptr %0, ptr %2, align 8
  %3 = load ptr, ptr %2, align 8
  call void @_ZN2cv3VecIdLi4EEC2Ev(ptr noundef nonnull align 8 dereferenceable(32) %3)
  %4 = getelementptr inbounds %"class.cv::Matx", ptr %3, i32 0, i32 0
  %5 = getelementptr inbounds [4 x double], ptr %4, i64 0, i64 3
  store double 0.000000e+00, ptr %5, align 8
  %6 = getelementptr inbounds %"class.cv::Matx", ptr %3, i32 0, i32 0
  %7 = getelementptr inbounds [4 x double], ptr %6, i64 0, i64 2
  store double 0.000000e+00, ptr %7, align 8
  %8 = getelementptr inbounds %"class.cv::Matx", ptr %3, i32 0, i32 0
  %9 = getelementptr inbounds [4 x double], ptr %8, i64 0, i64 1
  store double 0.000000e+00, ptr %9, align 8
  %10 = getelementptr inbounds %"class.cv::Matx", ptr %3, i32 0, i32 0
  %11 = getelementptr inbounds [4 x double], ptr %10, i64 0, i64 0
  store double 0.000000e+00, ptr %11, align 8
  ret void
}

; Function Attrs: mustprogress uwtable
define void @_ZNK2cv5MatOp8subtractERKNS_7MatExprES3_RS1_(ptr noundef nonnull align 8 dereferenceable(8) %0, ptr noundef nonnull align 8 dereferenceable(352) %1, ptr noundef nonnull align 8 dereferenceable(352) %2, ptr noundef nonnull align 8 dereferenceable(352) %3) unnamed_addr #6 align 2 personality ptr @__gxx_personality_v0 {
  %5 = alloca ptr, align 8
  %6 = alloca ptr, align 8
  %7 = alloca ptr, align 8
  %8 = alloca ptr, align 8
  %9 = alloca %"class.cv::utils::trace::details::Region", align 8
  %10 = alloca double, align 8
  %11 = alloca double, align 8
  %12 = alloca %"class.cv::Scalar_", align 8
  %13 = alloca ptr, align 8
  %14 = alloca i32, align 4
  %15 = alloca %"class.cv::Mat", align 8
  %16 = alloca %"class.cv::Mat", align 8
  store ptr %0, ptr %5, align 8
  store ptr %1, ptr %6, align 8
  store ptr %2, ptr %7, align 8
  store ptr %3, ptr %8, align 8
  %17 = load ptr, ptr %5, align 8
  call void @_ZN2cv5utils5trace7details6RegionC1ERKNS3_21LocationStaticStorageE(ptr noundef nonnull align 8 dereferenceable(12) %9, ptr noundef nonnull align 8 dereferenceable(32) @_ZZNK2cv5MatOp8subtractERKNS_7MatExprES3_RS1_E25__cv_trace_location_fn371)
  %18 = load ptr, ptr %7, align 8
  %19 = getelementptr inbounds %"class.cv::MatExpr", ptr %18, i32 0, i32 0
  %20 = load ptr, ptr %19, align 8
  %21 = icmp eq ptr %17, %20
  br i1 %21, label %22, label %109

22:                                               ; preds = %4
  store double 1.000000e+00, ptr %10, align 8
  store double -1.000000e+00, ptr %11, align 8
  invoke void @_ZN2cv7Scalar_IdEC2Ev(ptr noundef nonnull align 8 dereferenceable(32) %12)
          to label %23 unwind label %50

23:                                               ; preds = %22
  call void @_ZN2cv3MatC1Ev(ptr noundef nonnull align 8 dereferenceable(96) %15) #3
  call void @_ZN2cv3MatC1Ev(ptr noundef nonnull align 8 dereferenceable(96) %16) #3
  %24 = load ptr, ptr %6, align 8
  %25 = invoke noundef zeroext i1 @_ZN2cvL7isAddExERKNS_7MatExprE(ptr noundef nonnull align 8 dereferenceable(352) %24)
          to label %26 unwind label %54

26:                                               ; preds = %23
  br i1 %25, label %27, label %58

27:                                               ; preds = %26
  %28 = load ptr, ptr %6, align 8
  %29 = getelementptr inbounds %"class.cv::MatExpr", ptr %28, i32 0, i32 3
  %30 = getelementptr inbounds %"class.cv::Mat", ptr %29, i32 0, i32 4
  %31 = load ptr, ptr %30, align 8
  %32 = icmp ne ptr %31, null
  br i1 %32, label %33, label %38

33:                                               ; preds = %27
  %34 = load ptr, ptr %6, align 8
  %35 = getelementptr inbounds %"class.cv::MatExpr", ptr %34, i32 0, i32 6
  %36 = load double, ptr %35, align 8
  %37 = fcmp oeq double %36, 0.000000e+00
  br i1 %37, label %38, label %58

38:                                               ; preds = %33, %27
  %39 = load ptr, ptr %6, align 8
  %40 = getelementptr inbounds %"class.cv::MatExpr", ptr %39, i32 0, i32 2
  %41 = invoke noundef nonnull align 8 dereferenceable(96) ptr @_ZN2cv3MataSERKS0_(ptr noundef nonnull align 8 dereferenceable(96) %15, ptr noundef nonnull align 8 dereferenceable(96) %40)
          to label %42 unwind label %54

42:                                               ; preds = %38
  %43 = load ptr, ptr %6, align 8
  %44 = getelementptr inbounds %"class.cv::MatExpr", ptr %43, i32 0, i32 5
  %45 = load double, ptr %44, align 8
  store double %45, ptr %10, align 8
  %46 = load ptr, ptr %6, align 8
  %47 = getelementptr inbounds %"class.cv::MatExpr", ptr %46, i32 0, i32 7
  %48 = invoke noundef nonnull align 8 dereferenceable(32) ptr @_ZN2cv7Scalar_IdEaSERKS1_(ptr noundef nonnull align 8 dereferenceable(32) %12, ptr noundef nonnull align 8 dereferenceable(32) %47)
          to label %49 unwind label %54

49:                                               ; preds = %42
  br label %67

50:                                               ; preds = %109, %22
  %51 = landingpad { ptr, i32 }
          cleanup
  %52 = extractvalue { ptr, i32 } %51, 0
  store ptr %52, ptr %13, align 8
  %53 = extractvalue { ptr, i32 } %51, 1
  store i32 %53, ptr %14, align 4
  br label %121

54:                                               ; preds = %104, %95, %86, %82, %67, %58, %42, %38, %23
  %55 = landingpad { ptr, i32 }
          cleanup
  %56 = extractvalue { ptr, i32 } %55, 0
  store ptr %56, ptr %13, align 8
  %57 = extractvalue { ptr, i32 } %55, 1
  store i32 %57, ptr %14, align 4
  call void @_ZN2cv3MatD1Ev(ptr noundef nonnull align 8 dereferenceable(96) %16) #3
  call void @_ZN2cv3MatD1Ev(ptr noundef nonnull align 8 dereferenceable(96) %15) #3
  br label %121

58:                                               ; preds = %33, %26
  %59 = load ptr, ptr %6, align 8
  %60 = getelementptr inbounds %"class.cv::MatExpr", ptr %59, i32 0, i32 0
  %61 = load ptr, ptr %60, align 8
  %62 = load ptr, ptr %6, align 8
  %63 = load ptr, ptr %61, align 8
  %64 = getelementptr inbounds ptr, ptr %63, i64 3
  %65 = load ptr, ptr %64, align 8
  invoke void %65(ptr noundef nonnull align 8 dereferenceable(8) %61, ptr noundef nonnull align 8 dereferenceable(352) %62, ptr noundef nonnull align 8 dereferenceable(96) %15, i32 noundef -1)
          to label %66 unwind label %54

66:                                               ; preds = %58
  br label %67

67:                                               ; preds = %66, %49
  %68 = load ptr, ptr %7, align 8
  %69 = invoke noundef zeroext i1 @_ZN2cvL7isAddExERKNS_7MatExprE(ptr noundef nonnull align 8 dereferenceable(352) %68)
          to label %70 unwind label %54

70:                                               ; preds = %67
  br i1 %69, label %71, label %95

71:                                               ; preds = %70
  %72 = load ptr, ptr %7, align 8
  %73 = getelementptr inbounds %"class.cv::MatExpr", ptr %72, i32 0, i32 3
  %74 = getelementptr inbounds %"class.cv::Mat", ptr %73, i32 0, i32 4
  %75 = load ptr, ptr %74, align 8
  %76 = icmp ne ptr %75, null
  br i1 %76, label %77, label %82

77:                                               ; preds = %71
  %78 = load ptr, ptr %7, align 8
  %79 = getelementptr inbounds %"class.cv::MatExpr", ptr %78, i32 0, i32 6
  %80 = load double, ptr %79, align 8
  %81 = fcmp oeq double %80, 0.000000e+00
  br i1 %81, label %82, label %95

82:                                               ; preds = %77, %71
  %83 = load ptr, ptr %7, align 8
  %84 = getelementptr inbounds %"class.cv::MatExpr", ptr %83, i32 0, i32 2
  %85 = invoke noundef nonnull align 8 dereferenceable(96) ptr @_ZN2cv3MataSERKS0_(ptr noundef nonnull align 8 dereferenceable(96) %16, ptr noundef nonnull align 8 dereferenceable(96) %84)
          to label %86 unwind label %54

86:                                               ; preds = %82
  %87 = load ptr, ptr %7, align 8
  %88 = getelementptr inbounds %"class.cv::MatExpr", ptr %87, i32 0, i32 5
  %89 = load double, ptr %88, align 8
  %90 = fneg double %89
  store double %90, ptr %11, align 8
  %91 = load ptr, ptr %7, align 8
  %92 = getelementptr inbounds %"class.cv::MatExpr", ptr %91, i32 0, i32 7
  %93 = invoke noundef nonnull align 8 dereferenceable(32) ptr @_ZN2cvmIIdEERNS_7Scalar_IT_EES4_RKS3_(ptr noundef nonnull align 8 dereferenceable(32) %12, ptr noundef nonnull align 8 dereferenceable(32) %92)
          to label %94 unwind label %54

94:                                               ; preds = %86
  br label %104

95:                                               ; preds = %77, %70
  %96 = load ptr, ptr %7, align 8
  %97 = getelementptr inbounds %"class.cv::MatExpr", ptr %96, i32 0, i32 0
  %98 = load ptr, ptr %97, align 8
  %99 = load ptr, ptr %7, align 8
  %100 = load ptr, ptr %98, align 8
  %101 = getelementptr inbounds ptr, ptr %100, i64 3
  %102 = load ptr, ptr %101, align 8
  invoke void %102(ptr noundef nonnull align 8 dereferenceable(8) %98, ptr noundef nonnull align 8 dereferenceable(352) %99, ptr noundef nonnull align 8 dereferenceable(96) %16, i32 noundef -1)
          to label %103 unwind label %54

103:                                              ; preds = %95
  br label %104

104:                                              ; preds = %103, %94
  %105 = load ptr, ptr %8, align 8
  %106 = load double, ptr %10, align 8
  %107 = load double, ptr %11, align 8
  invoke void @_ZN2cv11MatOp_AddEx8makeExprERNS_7MatExprERKNS_3MatES5_ddRKNS_7Scalar_IdEE(ptr noundef nonnull align 8 dereferenceable(352) %105, ptr noundef nonnull align 8 dereferenceable(96) %15, ptr noundef nonnull align 8 dereferenceable(96) %16, double noundef %106, double noundef %107, ptr noundef nonnull align 8 dereferenceable(32) %12)
          to label %108 unwind label %54

108:                                              ; preds = %104
  call void @_ZN2cv3MatD1Ev(ptr noundef nonnull align 8 dereferenceable(96) %16) #3
  call void @_ZN2cv3MatD1Ev(ptr noundef nonnull align 8 dereferenceable(96) %15) #3
  br label %120

109:                                              ; preds = %4
  %110 = load ptr, ptr %7, align 8
  %111 = getelementptr inbounds %"class.cv::MatExpr", ptr %110, i32 0, i32 0
  %112 = load ptr, ptr %111, align 8
  %113 = load ptr, ptr %6, align 8
  %114 = load ptr, ptr %7, align 8
  %115 = load ptr, ptr %8, align 8
  %116 = load ptr, ptr %112, align 8
  %117 = getelementptr inbounds ptr, ptr %116, i64 15
  %118 = load ptr, ptr %117, align 8
  invoke void %118(ptr noundef nonnull align 8 dereferenceable(8) %112, ptr noundef nonnull align 8 dereferenceable(352) %113, ptr noundef nonnull align 8 dereferenceable(352) %114, ptr noundef nonnull align 8 dereferenceable(352) %115)
          to label %119 unwind label %50

119:                                              ; preds = %109
  br label %120

120:                                              ; preds = %119, %108
  call void @_ZN2cv5utils5trace7details6RegionD2Ev(ptr noundef nonnull align 8 dereferenceable(12) %9) #3
  ret void

121:                                              ; preds = %54, %50
  call void @_ZN2cv5utils5trace7details6RegionD2Ev(ptr noundef nonnull align 8 dereferenceable(12) %9) #3
  br label %122

122:                                              ; preds = %121
  %123 = load ptr, ptr %13, align 8
  %124 = load i32, ptr %14, align 4
  %125 = insertvalue { ptr, i32 } poison, ptr %123, 0
  %126 = insertvalue { ptr, i32 } %125, i32 %124, 1
  resume { ptr, i32 } %126
}